target datalayout = "e-m:e-p270:32:32-p271:32:32-p272:64:64-i64:64-i128:128-f80:128-n8:16:32:64-S128"
target triple = "x86_64-pc-linux-gnu"

@.str.62 = private unnamed_addr constant [10 x i8] c"testapp.c\00", align 1
@.str.192 = private unnamed_addr constant [2 x i8] c"r\00", align 1
@.str.199 = private unnamed_addr constant [15 x i8] c"oldstderr >= 0\00", align 1
@__PRETTY_FUNCTION__.test_vperror = private unnamed_addr constant [36 x i8] c"enum test_return test_vperror(void)\00", align 1
@.str.200 = private unnamed_addr constant [23 x i8] c"/tmp/test_file.XXXXXXX\00", align 1
@.str.201 = private unnamed_addr constant [12 x i8] c"newfile > 0\00", align 1
@.str.202 = private unnamed_addr constant [20 x i8] c"rv == STDERR_FILENO\00", align 1
@.str.203 = private unnamed_addr constant [8 x i8] c"rv == 0\00", align 1
@.str.204 = private unnamed_addr constant [29 x i8] c"Old McDonald had a farm.  %s\00", align 1
@.str.205 = private unnamed_addr constant [7 x i8] c"EI EIO\00", align 1
@.str.206 = private unnamed_addr constant [6 x i8] c"efile\00", align 1
@.str.207 = private unnamed_addr constant [4 x i8] c"prv\00", align 1
@.str.208 = private unnamed_addr constant [38 x i8] c"Old McDonald had a farm.  EI EIO: %s\0A\00", align 1

; Function Attrs: nounwind uwtable
define internal i32 @test_vperror() #0 {
  %1 = alloca i32, align 4
  %2 = alloca i32, align 4
  %3 = alloca [24 x i8], align 16
  %4 = alloca i32, align 4
  %5 = alloca [80 x i8], align 16
  %6 = alloca ptr, align 8
  %7 = alloca ptr, align 8
  %8 = alloca [80 x i8], align 16
  call void @llvm.lifetime.start.p0(i64 4, ptr %1) #12
  store i32 0, ptr %1, align 4, !tbaa !10
  call void @llvm.lifetime.start.p0(i64 4, ptr %2) #12
  %9 = call i32 @dup(i32 noundef 2) #12
  store i32 %9, ptr %2, align 4, !tbaa !10
  %10 = load i32, ptr %2, align 4, !tbaa !10
  %11 = icmp sge i32 %10, 0
  br i1 %11, label %12, label %13

12:                                               ; preds = %0
  br label %14

13:                                               ; preds = %0
  call void @__assert_fail(ptr noundef @.str.199, ptr noundef @.str.62, i32 noundef 743, ptr noundef @__PRETTY_FUNCTION__.test_vperror) #13
  unreachable

14:                                               ; preds = %12
  call void @llvm.lifetime.start.p0(i64 24, ptr %3) #12
  %15 = getelementptr inbounds [24 x i8], ptr %3, i64 0, i64 0
  %16 = call ptr @strncpy(ptr noundef %15, ptr noundef @.str.200, i64 noundef 24) #12
  call void @llvm.lifetime.start.p0(i64 4, ptr %4) #12
  %17 = getelementptr inbounds [24 x i8], ptr %3, i64 0, i64 0
  %18 = call i32 @mkstemp(ptr noundef %17)
  store i32 %18, ptr %4, align 4, !tbaa !10
  %19 = load i32, ptr %4, align 4, !tbaa !10
  %20 = icmp sgt i32 %19, 0
  br i1 %20, label %21, label %22

21:                                               ; preds = %14
  br label %23

22:                                               ; preds = %14
  call void @__assert_fail(ptr noundef @.str.201, ptr noundef @.str.62, i32 noundef 748, ptr noundef @__PRETTY_FUNCTION__.test_vperror) #13
  unreachable

23:                                               ; preds = %21
  %24 = load i32, ptr %4, align 4, !tbaa !10
  %25 = call i32 @dup2(i32 noundef %24, i32 noundef 2) #12
  store i32 %25, ptr %1, align 4, !tbaa !10
  %26 = load i32, ptr %1, align 4, !tbaa !10
  %27 = icmp eq i32 %26, 2
  br i1 %27, label %28, label %29

28:                                               ; preds = %23
  br label %30

29:                                               ; preds = %23
  call void @__assert_fail(ptr noundef @.str.202, ptr noundef @.str.62, i32 noundef 750, ptr noundef @__PRETTY_FUNCTION__.test_vperror) #13
  unreachable

30:                                               ; preds = %28
  %31 = load i32, ptr %4, align 4, !tbaa !10
  %32 = call i32 @close(i32 noundef %31)
  store i32 %32, ptr %1, align 4, !tbaa !10
  %33 = load i32, ptr %1, align 4, !tbaa !10
  %34 = icmp eq i32 %33, 0
  br i1 %34, label %35, label %36

35:                                               ; preds = %30
  br label %37

36:                                               ; preds = %30
  call void @__assert_fail(ptr noundef @.str.203, ptr noundef @.str.62, i32 noundef 752, ptr noundef @__PRETTY_FUNCTION__.test_vperror) #13
  unreachable

37:                                               ; preds = %35
  %38 = call ptr @__errno_location() #16
  store i32 5, ptr %38, align 4, !tbaa !10
  call void (ptr, ...) @vperror(ptr noundef @.str.204, ptr noundef @.str.205)
  %39 = load i32, ptr %2, align 4, !tbaa !10
  %40 = call i32 @dup2(i32 noundef %39, i32 noundef 2) #12
  store i32 %40, ptr %1, align 4, !tbaa !10
  %41 = load i32, ptr %1, align 4, !tbaa !10
  %42 = icmp eq i32 %41, 2
  br i1 %42, label %43, label %44

43:                                               ; preds = %37
  br label %45

44:                                               ; preds = %37
  call void @__assert_fail(ptr noundef @.str.202, ptr noundef @.str.62, i32 noundef 759, ptr noundef @__PRETTY_FUNCTION__.test_vperror) #13
  unreachable

45:                                               ; preds = %43
  call void @llvm.lifetime.start.p0(i64 80, ptr %5) #12
  call void @llvm.memset.p0.i64(ptr align 16 %5, i8 0, i64 80, i1 false)
  call void @llvm.lifetime.start.p0(i64 8, ptr %6) #12
  %46 = getelementptr inbounds [24 x i8], ptr %3, i64 0, i64 0
  %47 = call noalias ptr @fopen(ptr noundef %46, ptr noundef @.str.192)
  store ptr %47, ptr %6, align 8, !tbaa !37
  %48 = load ptr, ptr %6, align 8, !tbaa !37
  %49 = icmp ne ptr %48, null
  br i1 %49, label %50, label %51

50:                                               ; preds = %45
  br label %52

51:                                               ; preds = %45
  call void @__assert_fail(ptr noundef @.str.206, ptr noundef @.str.62, i32 noundef 765, ptr noundef @__PRETTY_FUNCTION__.test_vperror) #13
  unreachable

52:                                               ; preds = %50
  call void @llvm.lifetime.start.p0(i64 8, ptr %7) #12
  %53 = getelementptr inbounds [80 x i8], ptr %5, i64 0, i64 0
  %54 = load ptr, ptr %6, align 8, !tbaa !37
  %55 = call ptr @fgets(ptr noundef %53, i32 noundef 80, ptr noundef %54)
  store ptr %55, ptr %7, align 8, !tbaa !8
  %56 = load ptr, ptr %7, align 8, !tbaa !8
  %57 = icmp ne ptr %56, null
  br i1 %57, label %58, label %59

58:                                               ; preds = %52
  br label %60

59:                                               ; preds = %52
  call void @__assert_fail(ptr noundef @.str.207, ptr noundef @.str.62, i32 noundef 767, ptr noundef @__PRETTY_FUNCTION__.test_vperror) #13
  unreachable

60:                                               ; preds = %58
  %61 = load ptr, ptr %6, align 8, !tbaa !37
  %62 = call i32 @fclose(ptr noundef %61)
  %63 = getelementptr inbounds [24 x i8], ptr %3, i64 0, i64 0
  %64 = call i32 @unlink(ptr noundef %63) #12
  call void @llvm.lifetime.start.p0(i64 80, ptr %8) #12
  call void @llvm.memset.p0.i64(ptr align 16 %8, i8 0, i64 80, i1 false)
  %65 = getelementptr inbounds [80 x i8], ptr %8, i64 0, i64 0
  %66 = call ptr @strerror(i32 noundef 5) #12
  %67 = call i32 (ptr, i64, ptr, ...) @snprintf(ptr noundef %65, i64 noundef 80, ptr noundef @.str.208, ptr noundef %66) #12
  %68 = getelementptr inbounds [80 x i8], ptr %8, i64 0, i64 0
  %69 = getelementptr inbounds [80 x i8], ptr %5, i64 0, i64 0
  %70 = call i32 @strcmp(ptr noundef %68, ptr noundef %69) #15
  %71 = icmp eq i32 %70, 0
  %72 = select i1 %71, i32 1, i32 2
  call void @llvm.lifetime.end.p0(i64 80, ptr %8) #12
  call void @llvm.lifetime.end.p0(i64 8, ptr %7) #12
  call void @llvm.lifetime.end.p0(i64 8, ptr %6) #12
  call void @llvm.lifetime.end.p0(i64 80, ptr %5) #12
  call void @llvm.lifetime.end.p0(i64 4, ptr %4) #12
  call void @llvm.lifetime.end.p0(i64 24, ptr %3) #12
  call void @llvm.lifetime.end.p0(i64 4, ptr %2) #12
  call void @llvm.lifetime.end.p0(i64 4, ptr %1) #12
  ret i32 %72
}