; Function Attrs: nounwind uwtable
define internal range(i32 1, 3) i32 @test_vperror() #0 {
  %1 = alloca [24 x i8], align 16
  %2 = alloca [80 x i8], align 16
  %3 = alloca [80 x i8], align 16
  %4 = tail call i32 @dup(i32 noundef 2) #21
  %5 = icmp sgt i32 %4, -1
  br i1 %5, label %7, label %6

6:                                                ; preds = %0
  tail call void @__assert_fail(ptr noundef nonnull @.str.199, ptr noundef nonnull @.str.62, i32 noundef 743, ptr noundef nonnull @__PRETTY_FUNCTION__.test_vperror) #22
  unreachable

7:                                                ; preds = %0
  call void @llvm.lifetime.start.p0(i64 24, ptr nonnull %1) #21
  call void @llvm.memcpy.p0.p0.i64(ptr noundef nonnull align 16 dereferenceable(24) %1, ptr noundef nonnull align 1 dereferenceable(24) @str, i64 noundef 24, i1 false) #21
  %8 = call i32 @mkstemp(ptr noundef nonnull %1) #21
  %9 = icmp sgt i32 %8, 0
  br i1 %9, label %11, label %10

10:                                               ; preds = %7
  call void @__assert_fail(ptr noundef nonnull @.str.201, ptr noundef nonnull @.str.62, i32 noundef 748, ptr noundef nonnull @__PRETTY_FUNCTION__.test_vperror) #22
  unreachable

11:                                               ; preds = %7
  %12 = call i32 @dup2(i32 noundef %8, i32 noundef 2) #21
  %13 = icmp eq i32 %12, 2
  br i1 %13, label %15, label %14

14:                                               ; preds = %11
  call void @__assert_fail(ptr noundef nonnull @.str.202, ptr noundef nonnull @.str.62, i32 noundef 750, ptr noundef nonnull @__PRETTY_FUNCTION__.test_vperror) #22
  unreachable

15:                                               ; preds = %11
  %16 = call i32 @close(i32 noundef %8) #21
  %17 = icmp eq i32 %16, 0
  br i1 %17, label %19, label %18

18:                                               ; preds = %15
  call void @__assert_fail(ptr noundef nonnull @.str.203, ptr noundef nonnull @.str.62, i32 noundef 752, ptr noundef nonnull @__PRETTY_FUNCTION__.test_vperror) #22
  unreachable

19:                                               ; preds = %15
  %20 = tail call ptr @__errno_location() #25
  store i32 5, ptr %20, align 4, !tbaa !9
  call void (ptr, ...) @vperror(ptr noundef nonnull @.str.204, ptr noundef nonnull @.str.205) #21
  %21 = call i32 @dup2(i32 noundef %4, i32 noundef 2) #21
  %22 = icmp eq i32 %21, 2
  br i1 %22, label %24, label %23

23:                                               ; preds = %19
  call void @__assert_fail(ptr noundef nonnull @.str.202, ptr noundef nonnull @.str.62, i32 noundef 759, ptr noundef nonnull @__PRETTY_FUNCTION__.test_vperror) #22
  unreachable

24:                                               ; preds = %19
  call void @llvm.lifetime.start.p0(i64 80, ptr nonnull %2) #21
  call void @llvm.memset.p0.i64(ptr noundef nonnull align 16 dereferenceable(80) %2, i8 0, i64 80, i1 false)
  %25 = call noalias ptr @fopen(ptr noundef nonnull %1, ptr noundef nonnull @.str.192)
  %.not = icmp eq ptr %25, null
  br i1 %.not, label %26, label %27

26:                                               ; preds = %24
  call void @__assert_fail(ptr noundef nonnull @.str.206, ptr noundef nonnull @.str.62, i32 noundef 765, ptr noundef nonnull @__PRETTY_FUNCTION__.test_vperror) #22
  unreachable

27:                                               ; preds = %24
  %28 = call ptr @fgets(ptr noundef nonnull %2, i32 noundef 80, ptr noundef nonnull %25)
  %.not13 = icmp eq ptr %28, null
  br i1 %.not13, label %29, label %30

29:                                               ; preds = %27
  call void @__assert_fail(ptr noundef nonnull @.str.207, ptr noundef nonnull @.str.62, i32 noundef 767, ptr noundef nonnull @__PRETTY_FUNCTION__.test_vperror) #22
  unreachable

30:                                               ; preds = %27
  %31 = call i32 @fclose(ptr noundef nonnull %25)
  %32 = call i32 @unlink(ptr noundef nonnull %1) #21
  call void @llvm.lifetime.start.p0(i64 80, ptr nonnull %3) #21
  call void @llvm.memset.p0.i64(ptr noundef nonnull align 16 dereferenceable(80) %3, i8 0, i64 80, i1 false)
  %33 = call ptr @strerror(i32 noundef 5) #21
  %34 = call i32 (ptr, i64, ptr, ...) @snprintf(ptr noundef nonnull dereferenceable(1) %3, i64 noundef 80, ptr noundef nonnull @.str.208, ptr noundef %33) #21
  %35 = call i32 @strcmp(ptr noundef nonnull dereferenceable(1) %3, ptr noundef nonnull dereferenceable(1) %2) #24
  %36 = icmp eq i32 %35, 0
  %37 = select i1 %36, i32 1, i32 2
  call void @llvm.lifetime.end.p0(i64 80, ptr nonnull %3) #21
  call void @llvm.lifetime.end.p0(i64 80, ptr nonnull %2) #21
  call void @llvm.lifetime.end.p0(i64 24, ptr nonnull %1) #21
  ret i32 %37
}